; Function Attrs: nounwind uwtable
define i32 @fdt_setprop(ptr noundef %0, i32 noundef %1, ptr noundef %2, ptr noundef readonly captures(none) %3, i32 noundef %4) local_unnamed_addr #0 {
  %6 = alloca ptr, align 8
  call void @llvm.lifetime.start.p0(i64 8, ptr nonnull %6) #9
  %7 = call i32 @fdt_setprop_placeholder(ptr noundef %0, i32 noundef %1, ptr noundef %2, i32 noundef %4, ptr noundef nonnull %6)
  %.not = icmp ne i32 %7, 0
  %.not11 = icmp eq i32 %4, 0
  %or.cond = or i1 %.not11, %.not
  br i1 %or.cond, label %11, label %8

8:                                                ; preds = %5
  %9 = load ptr, ptr %6, align 8, !tbaa !22
  %10 = sext i32 %4 to i64
  tail call void @llvm.memcpy.p0.p0.i64(ptr align 1 %9, ptr align 1 %3, i64 %10, i1 false)
  br label %11

11:                                               ; preds = %8, %5
  call void @llvm.lifetime.end.p0(i64 8, ptr nonnull %6) #9
  ret i32 %7
}